; Function Attrs: mustprogress nofree norecurse nosync nounwind willreturn memory(argmem: write) uwtable
define hidden void @mpd_maxcontext(ptr noundef writeonly captures(none) initializes((0, 48)) %0) local_unnamed_addr #5 {
  store i64 999999999999999999, ptr %0, align 8, !tbaa !10
  %2 = getelementptr inbounds nuw i8, ptr %0, i64 8
  store i64 999999999999999999, ptr %2, align 8, !tbaa !13
  %3 = getelementptr inbounds nuw i8, ptr %0, i64 16
  store i64 -999999999999999999, ptr %3, align 8, !tbaa !14
  %4 = getelementptr inbounds nuw i8, ptr %0, i64 36
  store i32 6, ptr %4, align 4, !tbaa !15
  %5 = getelementptr inbounds nuw i8, ptr %0, i64 24
  store i32 19390, ptr %5, align 8, !tbaa !16
  %6 = getelementptr inbounds nuw i8, ptr %0, i64 28
  store i32 0, ptr %6, align 4, !tbaa !17
  %7 = getelementptr inbounds nuw i8, ptr %0, i64 32
  store i32 0, ptr %7, align 8, !tbaa !18
  %8 = getelementptr inbounds nuw i8, ptr %0, i64 40
  store i32 0, ptr %8, align 8, !tbaa !19
  %9 = getelementptr inbounds nuw i8, ptr %0, i64 44
  store i32 1, ptr %9, align 4, !tbaa !20
  ret void
}